target datalayout = "e-m:e-p270:32:32-p271:32:32-p272:64:64-i64:64-i128:128-f80:128-n8:16:32:64-S128"
target triple = "x86_64-pc-linux-gnu"

@.str.1 = private unnamed_addr constant [13 x i8] c"script_lua.c\00", align 1
@.str.40 = private unnamed_addr constant [12 x i8] c"__RUN_CTX__\00", align 1
@.str.98 = private unnamed_addr constant [5 x i8] c"rctx\00", align 1
@.str.118 = private unnamed_addr constant [40 x i8] c"redis.set_repl() requires one argument.\00", align 1
@.str.119 = private unnamed_addr constant [78 x i8] c"Invalid replication flags. Use REPL_AOF, REPL_REPLICA, REPL_ALL or REPL_NONE.\00", align 1

; Function Attrs: nounwind uwtable
define dso_local i32 @luaError(ptr noundef %0) #0 {
  %2 = alloca ptr, align 8
  store ptr %0, ptr %2, align 8, !tbaa !5
  %3 = load ptr, ptr %2, align 8, !tbaa !5
  %4 = call i32 @lua_error(ptr noundef %3)
  ret i32 %4
}

; Function Attrs: nounwind uwtable
define dso_local void @luaPushError(ptr noundef %0, ptr noundef %1) #0 {
  %3 = alloca ptr, align 8
  %4 = alloca ptr, align 8
  store ptr %0, ptr %3, align 8, !tbaa !5
  store ptr %1, ptr %4, align 8, !tbaa !10
  %5 = load ptr, ptr %3, align 8, !tbaa !5
  %6 = load ptr, ptr %4, align 8, !tbaa !10
  %7 = call ptr @sdsnew(ptr noundef %6)
  call void @luaPushErrorBuff(ptr noundef %5, ptr noundef %7)
  ret void
}

; Function Attrs: nounwind uwtable
define internal i32 @luaRedisSetReplCommand(ptr noundef %0) #0 {
  %2 = alloca i32, align 4
  %3 = alloca ptr, align 8
  %4 = alloca i32, align 4
  %5 = alloca i32, align 4
  %6 = alloca ptr, align 8
  %7 = alloca i32, align 4
  store ptr %0, ptr %3, align 8, !tbaa !5
  call void @llvm.lifetime.start.p0(i64 4, ptr %4) #12
  call void @llvm.lifetime.start.p0(i64 4, ptr %5) #12
  %8 = load ptr, ptr %3, align 8, !tbaa !5
  %9 = call i32 @lua_gettop(ptr noundef %8)
  store i32 %9, ptr %5, align 4, !tbaa !16
  call void @llvm.lifetime.start.p0(i64 8, ptr %6) #12
  %10 = load ptr, ptr %3, align 8, !tbaa !5
  %11 = call ptr @luaGetFromRegistry(ptr noundef %10, ptr noundef @.str.40)
  store ptr %11, ptr %6, align 8, !tbaa !64
  %12 = load ptr, ptr %6, align 8, !tbaa !64
  %13 = icmp ne ptr %12, null
  %14 = xor i1 %13, true
  %15 = xor i1 %14, true
  %16 = zext i1 %15 to i32
  %17 = sext i32 %16 to i64
  %18 = call i64 @llvm.expect.i64(i64 %17, i64 1)
  %19 = icmp ne i64 %18, 0
  br i1 %19, label %20, label %21

20:                                               ; preds = %1
  br label %23

21:                                               ; preds = %1
  call void @_serverAssert(ptr noundef @.str.98, ptr noundef @.str.1, i32 noundef 1093)
  call void @abort() #11
  unreachable

22:                                               ; No predecessors!
  br label %23

23:                                               ; preds = %22, %20
  %24 = load i32, ptr %5, align 4, !tbaa !16
  %25 = icmp ne i32 %24, 1
  br i1 %25, label %26, label %30

26:                                               ; preds = %23
  %27 = load ptr, ptr %3, align 8, !tbaa !5
  call void @luaPushError(ptr noundef %27, ptr noundef @.str.118)
  %28 = load ptr, ptr %3, align 8, !tbaa !5
  %29 = call i32 @luaError(ptr noundef %28)
  store i32 %29, ptr %2, align 4
  store i32 1, ptr %7, align 4
  br label %45

30:                                               ; preds = %23
  %31 = load ptr, ptr %3, align 8, !tbaa !5
  %32 = call double @lua_tonumber(ptr noundef %31, i32 noundef -1)
  %33 = fptosi double %32 to i32
  store i32 %33, ptr %4, align 4, !tbaa !16
  %34 = load i32, ptr %4, align 4, !tbaa !16
  %35 = and i32 %34, -4
  %36 = icmp ne i32 %35, 0
  br i1 %36, label %37, label %41

37:                                               ; preds = %30
  %38 = load ptr, ptr %3, align 8, !tbaa !5
  call void @luaPushError(ptr noundef %38, ptr noundef @.str.119)
  %39 = load ptr, ptr %3, align 8, !tbaa !5
  %40 = call i32 @luaError(ptr noundef %39)
  store i32 %40, ptr %2, align 4
  store i32 1, ptr %7, align 4
  br label %45

41:                                               ; preds = %30
  %42 = load ptr, ptr %6, align 8, !tbaa !64
  %43 = load i32, ptr %4, align 4, !tbaa !16
  %44 = call i32 @scriptSetRepl(ptr noundef %42, i32 noundef %43)
  store i32 0, ptr %2, align 4
  store i32 1, ptr %7, align 4
  br label %45

45:                                               ; preds = %41, %37, %26
  call void @llvm.lifetime.end.p0(i64 8, ptr %6) #12
  call void @llvm.lifetime.end.p0(i64 4, ptr %5) #12
  call void @llvm.lifetime.end.p0(i64 4, ptr %4) #12
  %46 = load i32, ptr %2, align 4
  ret i32 %46
}