; Function Attrs: nounwind uwtable
define internal i32 @luaRedisSetReplCommand(ptr noundef %0) #0 {
  %2 = tail call i32 @lua_gettop(ptr noundef %0) #11
  %3 = tail call ptr @luaGetFromRegistry(ptr noundef %0, ptr noundef nonnull @.str.40)
  %.not = icmp eq ptr %3, null
  br i1 %.not, label %4, label %5, !prof !6

4:                                                ; preds = %1
  tail call void @_serverAssert(ptr noundef nonnull @.str.98, ptr noundef nonnull @.str.1, i32 noundef 1093) #11
  tail call void @abort() #12
  unreachable

5:                                                ; preds = %1
  %.not13 = icmp eq i32 %2, 1
  br i1 %.not13, label %9, label %6

6:                                                ; preds = %5
  %7 = tail call ptr @sdsnew(ptr noundef nonnull @.str.118) #11
  tail call void @luaPushErrorBuff(ptr noundef %0, ptr noundef %7)
  %8 = tail call i32 @lua_error(ptr noundef %0) #11
  br label %17

9:                                                ; preds = %5
  %10 = tail call double @lua_tonumber(ptr noundef %0, i32 noundef -1) #11
  %11 = fptosi double %10 to i32
  %.not14 = icmp ult i32 %11, 4
  br i1 %.not14, label %15, label %12

12:                                               ; preds = %9
  %13 = tail call ptr @sdsnew(ptr noundef nonnull @.str.119) #11
  tail call void @luaPushErrorBuff(ptr noundef %0, ptr noundef %13)
  %14 = tail call i32 @lua_error(ptr noundef %0) #11
  br label %17

15:                                               ; preds = %9
  %16 = tail call i32 @scriptSetRepl(ptr noundef nonnull %3, i32 noundef %11) #11
  br label %17

17:                                               ; preds = %15, %12, %6
  %.0 = phi i32 [ %8, %6 ], [ %14, %12 ], [ 0, %15 ]
  ret i32 %.0
}